target datalayout = "e-m:e-p270:32:32-p271:32:32-p272:64:64-i64:64-i128:128-f80:128-n8:16:32:64-S128"
target triple = "x86_64-pc-linux-gnu"

; Function Attrs: mustprogress uwtable
define ptr @uprv_strdup_77(ptr noundef %0) #3 {
  %2 = alloca ptr, align 8
  %3 = alloca i64, align 8
  %4 = alloca ptr, align 8
  store ptr %0, ptr %2, align 8, !tbaa !6
  call void @llvm.lifetime.start.p0(i64 8, ptr %3) #7
  %5 = load ptr, ptr %2, align 8, !tbaa !6
  %6 = call i64 @strlen(ptr noundef %5) #8
  %7 = add i64 %6, 1
  store i64 %7, ptr %3, align 8, !tbaa !15
  call void @llvm.lifetime.start.p0(i64 8, ptr %4) #7
  %8 = load i64, ptr %3, align 8, !tbaa !15
  %9 = call noalias ptr @uprv_malloc_77(i64 noundef %8) #9
  store ptr %9, ptr %4, align 8, !tbaa !6
  %10 = load ptr, ptr %4, align 8, !tbaa !6
  %11 = icmp ne ptr %10, null
  br i1 %11, label %12, label %19

12:                                               ; preds = %1
  br label %13

13:                                               ; preds = %12
  %14 = load ptr, ptr %4, align 8, !tbaa !6
  %15 = load ptr, ptr %2, align 8, !tbaa !6
  %16 = load i64, ptr %3, align 8, !tbaa !15
  call void @llvm.memcpy.p0.p0.i64(ptr align 1 %14, ptr align 1 %15, i64 %16, i1 false)
  br label %17

17:                                               ; preds = %13
  br label %18

18:                                               ; preds = %17
  br label %19

19:                                               ; preds = %18, %1
  %20 = load ptr, ptr %4, align 8, !tbaa !6
  call void @llvm.lifetime.end.p0(i64 8, ptr %4) #7
  call void @llvm.lifetime.end.p0(i64 8, ptr %3) #7
  ret ptr %20
}