; Function Attrs: mustprogress uwtable
define noalias ptr @uprv_strdup_77(ptr noundef readonly captures(none) %0) local_unnamed_addr #8 {
  %2 = tail call i64 @strlen(ptr noundef nonnull dereferenceable(1) %0) #13
  %3 = add i64 %2, 1
  %4 = tail call noalias ptr @uprv_malloc_77(i64 noundef %3) #14
  %.not = icmp eq ptr %4, null
  br i1 %.not, label %6, label %5

5:                                                ; preds = %1
  tail call void @llvm.memcpy.p0.p0.i64(ptr nonnull align 1 %4, ptr nonnull align 1 %0, i64 %3, i1 false)
  br label %6

6:                                                ; preds = %5, %1
  ret ptr %4
}